target datalayout = "e-m:e-p270:32:32-p271:32:32-p272:64:64-i64:64-i128:128-f80:128-n8:16:32:64-S128"
target triple = "x86_64-pc-linux-gnu"

%struct.AVCodecContext = type { ptr, i32, i32, ptr, i32, i32, ptr, ptr, ptr, i64, i32, i32, ptr, i32, %struct.AVRational, %struct.AVRational, %struct.AVRational, i32, i32, i32, i32, i32, %struct.AVRational, i32, i32, i32, i32, i32, i32, i32, i32, i32, i32, i32, ptr, ptr, i32, float, float, float, float, float, float, float, float, float, i32, i32, i32, i32, i32, i32, i32, i32, i32, i32, i32, i32, ptr, ptr, ptr, i32, i32, i32, i32, i32, i32, i32, i32, i32, i32, %struct.AVChannelLayout, i32, i32, i32, i32, i32, i32, i32, i32, ptr, i32, i32, i32, float, float, i32, i32, i32, i32, i32, ptr, i64, i64, float, float, i32, i32, ptr, ptr, i32, i32, i32, i32, i32, ptr, ptr, ptr, ptr, i32, i32, [8 x i64], i32, i32, i32, i32, i32, i32, i32, ptr, ptr, i32, i32, i32, i32, i32, i32, i32, i32, i32, i32, ptr, ptr, i32, i32, ptr, ptr, ptr, ptr, i32, i32, i64, i32, i32, i64, ptr, i64, ptr, i32, ptr, i32 }
%struct.AVRational = type { i32, i32 }
%struct.AVChannelLayout = type { i32, i32, %union.anon.1, ptr }
%union.anon.1 = type { i64 }
%struct.CinepakEncContext = type { ptr, ptr, [4 x ptr], ptr, ptr, ptr, ptr, ptr, ptr, i32, i32, i32, i32, i32, %struct.AVLFG, i64, ptr, ptr, ptr, i32, i32, i32, i32, i32, i32, i32, ptr }
%struct.AVLFG = type { [64 x i32], i32 }

; Function Attrs: cold nounwind optsize uwtable
define internal i32 @cinepak_encode_end(ptr noundef %0) #0 {
  %2 = alloca ptr, align 8
  %3 = alloca ptr, align 8
  %4 = alloca i32, align 4
  store ptr %0, ptr %2, align 8, !tbaa !4
  call void @llvm.lifetime.start.p0(i64 8, ptr %3) #8
  %5 = load ptr, ptr %2, align 8, !tbaa !4
  %6 = getelementptr inbounds nuw %struct.AVCodecContext, ptr %5, i32 0, i32 6
  %7 = load ptr, ptr %6, align 8, !tbaa !9
  store ptr %7, ptr %3, align 8, !tbaa !29
  call void @llvm.lifetime.start.p0(i64 4, ptr %4) #8
  %8 = load ptr, ptr %3, align 8, !tbaa !29
  %9 = getelementptr inbounds nuw %struct.CinepakEncContext, ptr %8, i32 0, i32 26
  call void @avpriv_elbg_free(ptr noundef %9)
  %10 = load ptr, ptr %3, align 8, !tbaa !29
  %11 = getelementptr inbounds nuw %struct.CinepakEncContext, ptr %10, i32 0, i32 5
  call void @av_frame_free(ptr noundef %11)
  %12 = load ptr, ptr %3, align 8, !tbaa !29
  %13 = getelementptr inbounds nuw %struct.CinepakEncContext, ptr %12, i32 0, i32 6
  call void @av_frame_free(ptr noundef %13)
  %14 = load ptr, ptr %3, align 8, !tbaa !29
  %15 = getelementptr inbounds nuw %struct.CinepakEncContext, ptr %14, i32 0, i32 7
  call void @av_frame_free(ptr noundef %15)
  %16 = load ptr, ptr %2, align 8, !tbaa !4
  %17 = getelementptr inbounds nuw %struct.AVCodecContext, ptr %16, i32 0, i32 23
  %18 = load i32, ptr %17, align 8, !tbaa !43
  %19 = icmp eq i32 %18, 2
  br i1 %19, label %20, label %23

20:                                               ; preds = %1
  %21 = load ptr, ptr %3, align 8, !tbaa !29
  %22 = getelementptr inbounds nuw %struct.CinepakEncContext, ptr %21, i32 0, i32 8
  call void @av_frame_free(ptr noundef %22)
  br label %23

23:                                               ; preds = %20, %1
  %24 = load ptr, ptr %3, align 8, !tbaa !29
  %25 = getelementptr inbounds nuw %struct.CinepakEncContext, ptr %24, i32 0, i32 16
  call void @av_freep(ptr noundef %25)
  %26 = load ptr, ptr %3, align 8, !tbaa !29
  %27 = getelementptr inbounds nuw %struct.CinepakEncContext, ptr %26, i32 0, i32 17
  call void @av_freep(ptr noundef %27)
  %28 = load ptr, ptr %3, align 8, !tbaa !29
  %29 = getelementptr inbounds nuw %struct.CinepakEncContext, ptr %28, i32 0, i32 3
  call void @av_freep(ptr noundef %29)
  %30 = load ptr, ptr %3, align 8, !tbaa !29
  %31 = getelementptr inbounds nuw %struct.CinepakEncContext, ptr %30, i32 0, i32 4
  call void @av_freep(ptr noundef %31)
  %32 = load ptr, ptr %3, align 8, !tbaa !29
  %33 = getelementptr inbounds nuw %struct.CinepakEncContext, ptr %32, i32 0, i32 18
  call void @av_freep(ptr noundef %33)
  store i32 0, ptr %4, align 4, !tbaa !47
  br label %34

34:                                               ; preds = %48, %23
  %35 = load i32, ptr %4, align 4, !tbaa !47
  %36 = load ptr, ptr %2, align 8, !tbaa !4
  %37 = getelementptr inbounds nuw %struct.AVCodecContext, ptr %36, i32 0, i32 23
  %38 = load i32, ptr %37, align 8, !tbaa !43
  %39 = icmp eq i32 %38, 2
  %40 = select i1 %39, i32 4, i32 3
  %41 = icmp slt i32 %35, %40
  br i1 %41, label %42, label %51

42:                                               ; preds = %34
  %43 = load ptr, ptr %3, align 8, !tbaa !29
  %44 = getelementptr inbounds nuw %struct.CinepakEncContext, ptr %43, i32 0, i32 2
  %45 = load i32, ptr %4, align 4, !tbaa !47
  %46 = sext i32 %45 to i64
  %47 = getelementptr inbounds [4 x ptr], ptr %44, i64 0, i64 %46
  call void @av_freep(ptr noundef %47)
  br label %48

48:                                               ; preds = %42
  %49 = load i32, ptr %4, align 4, !tbaa !47
  %50 = add nsw i32 %49, 1
  store i32 %50, ptr %4, align 4, !tbaa !47
  br label %34, !llvm.loop !77

51:                                               ; preds = %34
  call void @llvm.lifetime.end.p0(i64 4, ptr %4) #8
  call void @llvm.lifetime.end.p0(i64 8, ptr %3) #8
  ret i32 0
}