; Function Attrs: cold nounwind optsize uwtable
define internal noundef i32 @cinepak_encode_end(ptr noundef readonly captures(none) %0) #0 {
  %2 = getelementptr inbounds nuw i8, ptr %0, i64 32
  %3 = load ptr, ptr %2, align 8, !tbaa !4
  %4 = getelementptr inbounds nuw i8, ptr %3, i64 440
  tail call void @avpriv_elbg_free(ptr noundef nonnull %4) #8
  %5 = getelementptr inbounds nuw i8, ptr %3, i64 64
  tail call void @av_frame_free(ptr noundef nonnull %5) #8
  %6 = getelementptr inbounds nuw i8, ptr %3, i64 72
  tail call void @av_frame_free(ptr noundef nonnull %6) #8
  %7 = getelementptr inbounds nuw i8, ptr %3, i64 80
  tail call void @av_frame_free(ptr noundef nonnull %7) #8
  %8 = getelementptr inbounds nuw i8, ptr %0, i64 136
  %9 = load i32, ptr %8, align 8, !tbaa !40
  %10 = icmp eq i32 %9, 2
  br i1 %10, label %11, label %13

11:                                               ; preds = %1
  %12 = getelementptr inbounds nuw i8, ptr %3, i64 88
  tail call void @av_frame_free(ptr noundef nonnull %12) #8
  br label %13

13:                                               ; preds = %11, %1
  %14 = getelementptr inbounds nuw i8, ptr %3, i64 384
  tail call void @av_freep(ptr noundef nonnull %14) #8
  %15 = getelementptr inbounds nuw i8, ptr %3, i64 392
  tail call void @av_freep(ptr noundef nonnull %15) #8
  %16 = getelementptr inbounds nuw i8, ptr %3, i64 48
  tail call void @av_freep(ptr noundef nonnull %16) #8
  %17 = getelementptr inbounds nuw i8, ptr %3, i64 56
  tail call void @av_freep(ptr noundef nonnull %17) #8
  %18 = getelementptr inbounds nuw i8, ptr %3, i64 400
  tail call void @av_freep(ptr noundef nonnull %18) #8
  %19 = getelementptr inbounds nuw i8, ptr %3, i64 16
  br label %20

20:                                               ; preds = %13, %20
  %indvars.iv = phi i64 [ 0, %13 ], [ %indvars.iv.next, %20 ]
  %21 = getelementptr inbounds nuw [4 x ptr], ptr %19, i64 0, i64 %indvars.iv
  tail call void @av_freep(ptr noundef nonnull %21) #8
  %indvars.iv.next = add nuw nsw i64 %indvars.iv, 1
  %22 = load i32, ptr %8, align 8, !tbaa !40
  %23 = icmp eq i32 %22, 2
  %24 = select i1 %23, i64 4, i64 3
  %25 = icmp samesign ult i64 %indvars.iv.next, %24
  br i1 %25, label %20, label %26, !llvm.loop !121

26:                                               ; preds = %20
  ret i32 0
}